target datalayout = "e-m:e-p270:32:32-p271:32:32-p272:64:64-i64:64-i128:128-f80:128-n8:16:32:64-S128"
target triple = "x86_64-unknown-linux-gnu"

%"class.std::mersenne_twister_engine" = type { [624 x i64], i64 }
%"class.std::uniform_real_distribution" = type { %"struct.std::uniform_real_distribution<float>::param_type" }
%"struct.std::uniform_real_distribution<float>::param_type" = type { float, float }
%struct.random_uniform_distribution = type { %"class.std::mersenne_twister_engine", %"class.std::uniform_real_distribution" }
%"struct.std::__detail::_Adaptor" = type { ptr }

; Function Attrs: mustprogress nounwind uwtable
define linkonce_odr noundef float @_ZSt9nextafterff(float noundef %__x, float noundef %__y) #6 comdat {
entry:
  %__x.addr = alloca float, align 4
  %__y.addr = alloca float, align 4
  store float %__x, ptr %__x.addr, align 4
  store float %__y, ptr %__y.addr, align 4
  %0 = load float, ptr %__x.addr, align 4
  %1 = load float, ptr %__y.addr, align 4
  %call = call float @nextafterf(float noundef %0, float noundef %1) #3
  ret float %call
}

; Function Attrs: mustprogress nounwind uwtable
define linkonce_odr noundef nonnull align 8 dereferenceable(8) ptr @_ZSt3maxImERKT_S2_S2_(ptr noundef nonnull align 8 dereferenceable(8) %__a, ptr noundef nonnull align 8 dereferenceable(8) %__b) #6 comdat {
entry:
  %retval = alloca ptr, align 8
  %__a.addr = alloca ptr, align 8
  %__b.addr = alloca ptr, align 8
  store ptr %__a, ptr %__a.addr, align 8
  store ptr %__b, ptr %__b.addr, align 8
  %0 = load ptr, ptr %__a.addr, align 8
  %1 = load i64, ptr %0, align 8
  %2 = load ptr, ptr %__b.addr, align 8
  %3 = load i64, ptr %2, align 8
  %cmp = icmp ult i64 %1, %3
  br i1 %cmp, label %if.then, label %if.end

if.then:                                          ; preds = %entry
  %4 = load ptr, ptr %__b.addr, align 8
  store ptr %4, ptr %retval, align 8
  br label %return

if.end:                                           ; preds = %entry
  %5 = load ptr, ptr %__a.addr, align 8
  store ptr %5, ptr %retval, align 8
  br label %return

return:                                           ; preds = %if.end, %if.then
  %6 = load ptr, ptr %retval, align 8
  ret ptr %6
}

; Function Attrs: mustprogress nounwind uwtable
define linkonce_odr noundef x86_fp80 @_ZSt3loge(x86_fp80 noundef %__x) #6 comdat {
entry:
  %__x.addr = alloca x86_fp80, align 16
  store x86_fp80 %__x, ptr %__x.addr, align 16
  %0 = load x86_fp80, ptr %__x.addr, align 16
  %call = call x86_fp80 @logl(x86_fp80 noundef %0) #3
  ret x86_fp80 %call
}

; Function Attrs: mustprogress nounwind uwtable
define linkonce_odr noundef i64 @_ZNSt23mersenne_twister_engineImLm32ELm624ELm397ELm31ELm2567483615ELm11ELm4294967295ELm7ELm2636928640ELm15ELm4022730752ELm18ELm1812433253EE3minEv() #6 comdat align 2 {
entry:
  ret i64 0
}

; Function Attrs: mustprogress nounwind uwtable
define linkonce_odr noundef i64 @_ZNSt23mersenne_twister_engineImLm32ELm624ELm397ELm31ELm2567483615ELm11ELm4294967295ELm7ELm2636928640ELm15ELm4022730752ELm18ELm1812433253EE3maxEv() #6 comdat align 2 {
entry:
  ret i64 4294967295
}

; Function Attrs: mustprogress nounwind uwtable
define linkonce_odr noundef nonnull align 8 dereferenceable(8) ptr @_ZSt3minImERKT_S2_S2_(ptr noundef nonnull align 8 dereferenceable(8) %__a, ptr noundef nonnull align 8 dereferenceable(8) %__b) #6 comdat {
entry:
  %retval = alloca ptr, align 8
  %__a.addr = alloca ptr, align 8
  %__b.addr = alloca ptr, align 8
  store ptr %__a, ptr %__a.addr, align 8
  store ptr %__b, ptr %__b.addr, align 8
  %0 = load ptr, ptr %__b.addr, align 8
  %1 = load i64, ptr %0, align 8
  %2 = load ptr, ptr %__a.addr, align 8
  %3 = load i64, ptr %2, align 8
  %cmp = icmp ult i64 %1, %3
  br i1 %cmp, label %if.then, label %if.end

if.then:                                          ; preds = %entry
  %4 = load ptr, ptr %__b.addr, align 8
  store ptr %4, ptr %retval, align 8
  br label %return

if.end:                                           ; preds = %entry
  %5 = load ptr, ptr %__a.addr, align 8
  store ptr %5, ptr %retval, align 8
  br label %return

return:                                           ; preds = %if.end, %if.then
  %6 = load ptr, ptr %retval, align 8
  ret ptr %6
}

; Function Attrs: mustprogress uwtable
define linkonce_odr noundef float @_ZSt18generate_canonicalIfLm24ESt23mersenne_twister_engineImLm32ELm624ELm397ELm31ELm2567483615ELm11ELm4294967295ELm7ELm2636928640ELm15ELm4022730752ELm18ELm1812433253EEET_RT1_(ptr noundef nonnull align 8 dereferenceable(5000) %__urng) #4 comdat {
entry:
  %__urng.addr = alloca ptr, align 8
  %__b = alloca i64, align 8
  %ref.tmp = alloca i64, align 8
  %ref.tmp1 = alloca i64, align 8
  %__r = alloca x86_fp80, align 16
  %__log2r = alloca i64, align 8
  %__m = alloca i64, align 8
  %ref.tmp8 = alloca i64, align 8
  %ref.tmp9 = alloca i64, align 8
  %__ret = alloca float, align 4
  %__sum = alloca float, align 4
  %__tmp = alloca float, align 4
  %__k = alloca i64, align 8
  store ptr %__urng, ptr %__urng.addr, align 8
  store i64 24, ptr %ref.tmp, align 8
  store i64 24, ptr %ref.tmp1, align 8
  %call = call noundef nonnull align 8 dereferenceable(8) ptr @_ZSt3minImERKT_S2_S2_(ptr noundef nonnull align 8 dereferenceable(8) %ref.tmp, ptr noundef nonnull align 8 dereferenceable(8) %ref.tmp1)
  %0 = load i64, ptr %call, align 8
  store i64 %0, ptr %__b, align 8
  %call2 = call noundef i64 @_ZNSt23mersenne_twister_engineImLm32ELm624ELm397ELm31ELm2567483615ELm11ELm4294967295ELm7ELm2636928640ELm15ELm4022730752ELm18ELm1812433253EE3maxEv()
  %conv = uitofp i64 %call2 to x86_fp80
  %call3 = call noundef i64 @_ZNSt23mersenne_twister_engineImLm32ELm624ELm397ELm31ELm2567483615ELm11ELm4294967295ELm7ELm2636928640ELm15ELm4022730752ELm18ELm1812433253EE3minEv()
  %conv4 = uitofp i64 %call3 to x86_fp80
  %sub = fsub x86_fp80 %conv, %conv4
  %add = fadd x86_fp80 %sub, 0xK3FFF8000000000000000
  store x86_fp80 %add, ptr %__r, align 16
  %1 = load x86_fp80, ptr %__r, align 16
  %call5 = call noundef x86_fp80 @_ZSt3loge(x86_fp80 noundef %1)
  %call6 = call noundef x86_fp80 @_ZSt3loge(x86_fp80 noundef 0xK40008000000000000000)
  %div = fdiv x86_fp80 %call5, %call6
  %conv7 = fptoui x86_fp80 %div to i64
  store i64 %conv7, ptr %__log2r, align 8
  store i64 1, ptr %ref.tmp8, align 8
  %2 = load i64, ptr %__b, align 8
  %3 = load i64, ptr %__log2r, align 8
  %add10 = add i64 %2, %3
  %sub11 = sub i64 %add10, 1
  %4 = load i64, ptr %__log2r, align 8
  %div12 = udiv i64 %sub11, %4
  store i64 %div12, ptr %ref.tmp9, align 8
  %call13 = call noundef nonnull align 8 dereferenceable(8) ptr @_ZSt3maxImERKT_S2_S2_(ptr noundef nonnull align 8 dereferenceable(8) %ref.tmp8, ptr noundef nonnull align 8 dereferenceable(8) %ref.tmp9)
  %5 = load i64, ptr %call13, align 8
  store i64 %5, ptr %__m, align 8
  store float 0.000000e+00, ptr %__sum, align 4
  store float 1.000000e+00, ptr %__tmp, align 4
  %6 = load i64, ptr %__m, align 8
  store i64 %6, ptr %__k, align 8
  br label %for.cond

for.cond:                                         ; preds = %for.inc, %entry
  %7 = load i64, ptr %__k, align 8
  %cmp = icmp ne i64 %7, 0
  br i1 %cmp, label %for.body, label %for.end

for.body:                                         ; preds = %for.cond
  %8 = load ptr, ptr %__urng.addr, align 8
  %call14 = call noundef i64 @_ZNSt23mersenne_twister_engineImLm32ELm624ELm397ELm31ELm2567483615ELm11ELm4294967295ELm7ELm2636928640ELm15ELm4022730752ELm18ELm1812433253EEclEv(ptr noundef nonnull align 8 dereferenceable(5000) %8)
  %call15 = call noundef i64 @_ZNSt23mersenne_twister_engineImLm32ELm624ELm397ELm31ELm2567483615ELm11ELm4294967295ELm7ELm2636928640ELm15ELm4022730752ELm18ELm1812433253EE3minEv()
  %sub16 = sub i64 %call14, %call15
  %conv17 = uitofp i64 %sub16 to float
  %9 = load float, ptr %__tmp, align 4
  %10 = load float, ptr %__sum, align 4
  %11 = call float @llvm.fmuladd.f32(float %conv17, float %9, float %10)
  store float %11, ptr %__sum, align 4
  %12 = load x86_fp80, ptr %__r, align 16
  %13 = load float, ptr %__tmp, align 4
  %conv18 = fpext float %13 to x86_fp80
  %mul = fmul x86_fp80 %conv18, %12
  %conv19 = fptrunc x86_fp80 %mul to float
  store float %conv19, ptr %__tmp, align 4
  br label %for.inc

for.inc:                                          ; preds = %for.body
  %14 = load i64, ptr %__k, align 8
  %dec = add i64 %14, -1
  store i64 %dec, ptr %__k, align 8
  br label %for.cond, !llvm.loop !47

for.end:                                          ; preds = %for.cond
  %15 = load float, ptr %__sum, align 4
  %16 = load float, ptr %__tmp, align 4
  %div20 = fdiv float %15, %16
  store float %div20, ptr %__ret, align 4
  %17 = load float, ptr %__ret, align 4
  %cmp21 = fcmp oge float %17, 1.000000e+00
  br i1 %cmp21, label %if.then, label %if.end

if.then:                                          ; preds = %for.end
  %call23 = call noundef float @_ZSt9nextafterff(float noundef 1.000000e+00, float noundef 0.000000e+00)
  store float %call23, ptr %__ret, align 4
  br label %if.end

if.end:                                           ; preds = %if.then, %for.end
  %18 = load float, ptr %__ret, align 4
  ret float %18
}

; Function Attrs: mustprogress nounwind uwtable
define linkonce_odr noundef float @_ZNKSt25uniform_real_distributionIfE10param_type1aEv(ptr noundef nonnull align 4 dereferenceable(8) %this) #6 comdat align 2 {
entry:
  %this.addr = alloca ptr, align 8
  store ptr %this, ptr %this.addr, align 8
  %this1 = load ptr, ptr %this.addr, align 8
  %_M_a = getelementptr inbounds %"struct.std::uniform_real_distribution<float>::param_type", ptr %this1, i32 0, i32 0
  %0 = load float, ptr %_M_a, align 4
  ret float %0
}

; Function Attrs: mustprogress nounwind uwtable
define linkonce_odr noundef float @_ZNKSt25uniform_real_distributionIfE10param_type1bEv(ptr noundef nonnull align 4 dereferenceable(8) %this) #6 comdat align 2 {
entry:
  %this.addr = alloca ptr, align 8
  store ptr %this, ptr %this.addr, align 8
  %this1 = load ptr, ptr %this.addr, align 8
  %_M_b = getelementptr inbounds %"struct.std::uniform_real_distribution<float>::param_type", ptr %this1, i32 0, i32 1
  %0 = load float, ptr %_M_b, align 4
  ret float %0
}

; Function Attrs: mustprogress uwtable
define linkonce_odr noundef float @_ZNSt8__detail8_AdaptorISt23mersenne_twister_engineImLm32ELm624ELm397ELm31ELm2567483615ELm11ELm4294967295ELm7ELm2636928640ELm15ELm4022730752ELm18ELm1812433253EEfEclEv(ptr noundef nonnull align 8 dereferenceable(8) %this) #4 comdat align 2 {
entry:
  %this.addr = alloca ptr, align 8
  store ptr %this, ptr %this.addr, align 8
  %this1 = load ptr, ptr %this.addr, align 8
  %_M_g = getelementptr inbounds %"struct.std::__detail::_Adaptor", ptr %this1, i32 0, i32 0
  %0 = load ptr, ptr %_M_g, align 8
  %call = call noundef float @_ZSt18generate_canonicalIfLm24ESt23mersenne_twister_engineImLm32ELm624ELm397ELm31ELm2567483615ELm11ELm4294967295ELm7ELm2636928640ELm15ELm4022730752ELm18ELm1812433253EEET_RT1_(ptr noundef nonnull align 8 dereferenceable(5000) %0)
  ret float %call
}

; Function Attrs: mustprogress nounwind uwtable
define linkonce_odr void @_ZNSt8__detail8_AdaptorISt23mersenne_twister_engineImLm32ELm624ELm397ELm31ELm2567483615ELm11ELm4294967295ELm7ELm2636928640ELm15ELm4022730752ELm18ELm1812433253EEfEC2ERS2_(ptr noundef nonnull align 8 dereferenceable(8) %this, ptr noundef nonnull align 8 dereferenceable(5000) %__g) unnamed_addr #6 comdat align 2 {
entry:
  %this.addr = alloca ptr, align 8
  %__g.addr = alloca ptr, align 8
  store ptr %this, ptr %this.addr, align 8
  store ptr %__g, ptr %__g.addr, align 8
  %this1 = load ptr, ptr %this.addr, align 8
  %_M_g = getelementptr inbounds %"struct.std::__detail::_Adaptor", ptr %this1, i32 0, i32 0
  %0 = load ptr, ptr %__g.addr, align 8
  store ptr %0, ptr %_M_g, align 8
  ret void
}

; Function Attrs: mustprogress uwtable
define linkonce_odr noundef float @_ZNSt25uniform_real_distributionIfEclISt23mersenne_twister_engineImLm32ELm624ELm397ELm31ELm2567483615ELm11ELm4294967295ELm7ELm2636928640ELm15ELm4022730752ELm18ELm1812433253EEEEfRT_RKNS0_10param_typeE(ptr noundef nonnull align 4 dereferenceable(8) %this, ptr noundef nonnull align 8 dereferenceable(5000) %__urng, ptr noundef nonnull align 4 dereferenceable(8) %__p) #4 comdat align 2 {
entry:
  %this.addr = alloca ptr, align 8
  %__urng.addr = alloca ptr, align 8
  %__p.addr = alloca ptr, align 8
  %__aurng = alloca %"struct.std::__detail::_Adaptor", align 8
  store ptr %this, ptr %this.addr, align 8
  store ptr %__urng, ptr %__urng.addr, align 8
  store ptr %__p, ptr %__p.addr, align 8
  %0 = load ptr, ptr %__urng.addr, align 8
  call void @_ZNSt8__detail8_AdaptorISt23mersenne_twister_engineImLm32ELm624ELm397ELm31ELm2567483615ELm11ELm4294967295ELm7ELm2636928640ELm15ELm4022730752ELm18ELm1812433253EEfEC2ERS2_(ptr noundef nonnull align 8 dereferenceable(8) %__aurng, ptr noundef nonnull align 8 dereferenceable(5000) %0)
  %call = call noundef float @_ZNSt8__detail8_AdaptorISt23mersenne_twister_engineImLm32ELm624ELm397ELm31ELm2567483615ELm11ELm4294967295ELm7ELm2636928640ELm15ELm4022730752ELm18ELm1812433253EEfEclEv(ptr noundef nonnull align 8 dereferenceable(8) %__aurng)
  %1 = load ptr, ptr %__p.addr, align 8
  %call2 = call noundef float @_ZNKSt25uniform_real_distributionIfE10param_type1bEv(ptr noundef nonnull align 4 dereferenceable(8) %1)
  %2 = load ptr, ptr %__p.addr, align 8
  %call3 = call noundef float @_ZNKSt25uniform_real_distributionIfE10param_type1aEv(ptr noundef nonnull align 4 dereferenceable(8) %2)
  %sub = fsub float %call2, %call3
  %3 = load ptr, ptr %__p.addr, align 8
  %call4 = call noundef float @_ZNKSt25uniform_real_distributionIfE10param_type1aEv(ptr noundef nonnull align 4 dereferenceable(8) %3)
  %4 = call float @llvm.fmuladd.f32(float %call, float %sub, float %call4)
  ret float %4
}

; Function Attrs: mustprogress uwtable
define linkonce_odr noundef float @_ZNSt25uniform_real_distributionIfEclISt23mersenne_twister_engineImLm32ELm624ELm397ELm31ELm2567483615ELm11ELm4294967295ELm7ELm2636928640ELm15ELm4022730752ELm18ELm1812433253EEEEfRT_(ptr noundef nonnull align 4 dereferenceable(8) %this, ptr noundef nonnull align 8 dereferenceable(5000) %__urng) #4 comdat align 2 {
entry:
  %this.addr = alloca ptr, align 8
  %__urng.addr = alloca ptr, align 8
  store ptr %this, ptr %this.addr, align 8
  store ptr %__urng, ptr %__urng.addr, align 8
  %this1 = load ptr, ptr %this.addr, align 8
  %0 = load ptr, ptr %__urng.addr, align 8
  %_M_param = getelementptr inbounds %"class.std::uniform_real_distribution", ptr %this1, i32 0, i32 0
  %call = call noundef float @_ZNSt25uniform_real_distributionIfEclISt23mersenne_twister_engineImLm32ELm624ELm397ELm31ELm2567483615ELm11ELm4294967295ELm7ELm2636928640ELm15ELm4022730752ELm18ELm1812433253EEEEfRT_RKNS0_10param_typeE(ptr noundef nonnull align 4 dereferenceable(8) %this1, ptr noundef nonnull align 8 dereferenceable(5000) %0, ptr noundef nonnull align 4 dereferenceable(8) %_M_param)
  ret float %call
}

; Function Attrs: mustprogress uwtable
define noundef float @_Z13frand_uniformP27random_uniform_distribution(ptr noundef %rnd) #4 {
entry:
  %rnd.addr = alloca ptr, align 8
  store ptr %rnd, ptr %rnd.addr, align 8
  %0 = load ptr, ptr %rnd.addr, align 8
  %rd = getelementptr inbounds %struct.random_uniform_distribution, ptr %0, i32 0, i32 1
  %1 = load ptr, ptr %rnd.addr, align 8
  %gen = getelementptr inbounds %struct.random_uniform_distribution, ptr %1, i32 0, i32 0
  %call = call noundef float @_ZNSt25uniform_real_distributionIfEclISt23mersenne_twister_engineImLm32ELm624ELm397ELm31ELm2567483615ELm11ELm4294967295ELm7ELm2636928640ELm15ELm4022730752ELm18ELm1812433253EEEEfRT_(ptr noundef nonnull align 4 dereferenceable(8) %rd, ptr noundef nonnull align 8 dereferenceable(5000) %gen)
  ret float %call
}