; Function Attrs: mustprogress uwtable
define noundef float @_Z13frand_uniformP27random_uniform_distribution(ptr noundef %rnd) local_unnamed_addr #3 {
entry:
  %call.i.i.i.i.i = tail call x86_fp80 @llvm.log.f80(x86_fp80 0xK401F8000000000000000)
  %call.i8.i.i.i.i = tail call x86_fp80 @llvm.log.f80(x86_fp80 0xK40008000000000000000)
  %div.i.i.i.i = fdiv x86_fp80 %call.i.i.i.i.i, %call.i8.i.i.i.i
  %conv7.i.i.i.i = fptoui x86_fp80 %div.i.i.i.i to i64
  %sub11.i.i.i.i = add i64 %conv7.i.i.i.i, 23
  %div12.i.i.i.i = udiv i64 %sub11.i.i.i.i, %conv7.i.i.i.i
  %spec.select.i.i.i.i = tail call i64 @llvm.umax.i64(i64 %div12.i.i.i.i, i64 1)
  br label %for.body.i.i.i.i

for.body.i.i.i.i:                                 ; preds = %for.body.i.i.i.i, %entry
  %__k.019.i.i.i.i = phi i64 [ %spec.select.i.i.i.i, %entry ], [ %dec.i.i.i.i, %for.body.i.i.i.i ]
  %__tmp.018.i.i.i.i = phi float [ 1.000000e+00, %entry ], [ %conv19.i.i.i.i, %for.body.i.i.i.i ]
  %__sum.017.i.i.i.i = phi float [ 0.000000e+00, %entry ], [ %0, %for.body.i.i.i.i ]
  %call14.i.i.i.i = tail call noundef i64 @_ZNSt23mersenne_twister_engineImLm32ELm624ELm397ELm31ELm2567483615ELm11ELm4294967295ELm7ELm2636928640ELm15ELm4022730752ELm18ELm1812433253EEclEv(ptr noundef nonnull align 8 dereferenceable(5000) %rnd)
  %conv17.i.i.i.i = uitofp i64 %call14.i.i.i.i to float
  %0 = tail call float @llvm.fmuladd.f32(float %conv17.i.i.i.i, float %__tmp.018.i.i.i.i, float %__sum.017.i.i.i.i)
  %conv19.i.i.i.i = fmul float %__tmp.018.i.i.i.i, 0x41F0000000000000
  %dec.i.i.i.i = add i64 %__k.019.i.i.i.i, -1
  %cmp.not.i.i.i.i = icmp eq i64 %dec.i.i.i.i, 0
  br i1 %cmp.not.i.i.i.i, label %for.end.i.i.i.i, label %for.body.i.i.i.i, !llvm.loop !19

for.end.i.i.i.i:                                  ; preds = %for.body.i.i.i.i
  %div20.i.i.i.i = fdiv float %0, %conv19.i.i.i.i
  %cmp21.i.i.i.i = fcmp ult float %div20.i.i.i.i, 1.000000e+00
  br i1 %cmp21.i.i.i.i, label %_ZNSt25uniform_real_distributionIfEclISt23mersenne_twister_engineImLm32ELm624ELm397ELm31ELm2567483615ELm11ELm4294967295ELm7ELm2636928640ELm15ELm4022730752ELm18ELm1812433253EEEEfRT_.exit, label %if.then.i.i.i.i

if.then.i.i.i.i:                                  ; preds = %for.end.i.i.i.i
  %call.i11.i.i.i.i = tail call noundef float @nextafterf(float noundef 1.000000e+00, float noundef 0.000000e+00) #36
  br label %_ZNSt25uniform_real_distributionIfEclISt23mersenne_twister_engineImLm32ELm624ELm397ELm31ELm2567483615ELm11ELm4294967295ELm7ELm2636928640ELm15ELm4022730752ELm18ELm1812433253EEEEfRT_.exit

_ZNSt25uniform_real_distributionIfEclISt23mersenne_twister_engineImLm32ELm624ELm397ELm31ELm2567483615ELm11ELm4294967295ELm7ELm2636928640ELm15ELm4022730752ELm18ELm1812433253EEEEfRT_.exit: ; preds = %for.end.i.i.i.i, %if.then.i.i.i.i
  %__ret.0.i.i.i.i = phi float [ %call.i11.i.i.i.i, %if.then.i.i.i.i ], [ %div20.i.i.i.i, %for.end.i.i.i.i ]
  %rd = getelementptr inbounds nuw i8, ptr %rnd, i64 5000
  %_M_b.i.i.i = getelementptr inbounds nuw i8, ptr %rnd, i64 5004
  %1 = load float, ptr %_M_b.i.i.i, align 4
  %2 = load float, ptr %rd, align 4
  %sub.i.i = fsub float %1, %2
  %3 = tail call noundef float @llvm.fmuladd.f32(float %__ret.0.i.i.i.i, float %sub.i.i, float %2)
  ret float %3
}